Certificate:
    Data:
        Version: 3 (0x2)
        Serial Number:
            77:29:23:4d:f1:9d:29:63:c8:55:1c:bb:f1:e1:8f:ee
        Signature Algorithm: sha256WithRSAEncryption
        Issuer: CN=rootca_common_name
        Validity
            Not Before: Dec 11 06:30:50 2024 GMT
            Not After : Dec  9 06:30:50 2034 GMT
        Subject: CN=subca_common_name
        Subject Public Key Info:
            Public Key Algorithm: rsaEncryption
                Public-Key: (2048 bit)
                Modulus:
                    00:a6:21:15:b5:cc:dc:04:a6:6d:7d:40:2a:c7:8c:
                    9f:47:1c:ab:bc:1e:95:9c:dc:9e:10:08:cc:de:b3:
                    f3:80:5d:fb:3a:78:6e:d6:b0:9c:a9:76:65:1f:bb:
                    49:f3:f2:b4:2c:4d:b4:ea:21:da:24:5f:9d:e8:a0:
                    a7:8e:ed:dd:d1:e9:0a:71:71:9b:d1:2f:d9:c5:ac:
                    59:93:09:93:40:36:0c:40:a8:e9:d2:b8:1b:80:ba:
                    92:91:47:40:e8:ae:b6:8f:5c:4d:d7:07:38:73:1e:
                    22:60:9d:a4:c0:69:dd:0e:a8:b3:ee:b0:9d:5f:5e:
                    37:7f:a8:9a:6d:56:f1:fb:9e:88:d9:9e:be:78:d8:
                    a5:4d:f0:75:18:bb:66:49:10:f4:94:57:1c:de:e0:
                    37:63:a7:3e:7d:dd:4d:e2:ad:0e:22:1b:1e:e7:b7:
                    d9:83:41:3e:cc:55:c1:50:98:32:39:6c:4c:cc:2d:
                    e2:1d:b7:85:3c:2d:dd:56:56:88:36:d2:f5:15:66:
                    1f:85:01:3e:23:24:ea:af:60:96:c6:0c:2d:d1:a0:
                    fc:f5:81:f7:0e:26:2f:fa:8f:8e:85:ef:ba:60:44:
                    07:a2:ab:9b:a4:66:db:c5:23:f1:5e:c4:7f:e0:6e:
                    8e:a1:27:84:ac:b8:87:9f:d0:51:97:9c:db:cc:47:
                    b3:dd
                Exponent: 65537 (0x10001)
        X509v3 extensions:
            X509v3 Subject Key Identifier: 
                0D:98:43:AA:70:3F:DB:03:39:B8:4B:B7:F4:5A:E8:57:3C:9D:96:B4
            X509v3 Basic Constraints: critical
                CA:TRUE, pathlen:0
            X509v3 Extended Key Usage: 
                TLS Web Client Authentication, TLS Web Server Authentication
            X509v3 Key Usage: critical
                Certificate Sign, CRL Sign
            X509v3 Authority Key Identifier: 
                29:0B:FD:69:87:6B:A7:20:76:80:BE:38:6A:7E:EC:3F:BD:A5:DB:84
    Signature Algorithm: sha256WithRSAEncryption
    Signature Value:
        0c:cd:34:ce:8a:cd:25:f6:a1:18:09:00:31:7c:30:da:4c:f0:
        10:eb:b9:b0:e3:75:39:84:9a:c0:9a:f3:91:d5:62:dd:b3:43:
        94:d1:69:11:8a:e5:52:56:69:f4:cd:70:2a:d9:a2:ef:ac:09:
        d4:11:d1:71:c1:0e:0c:45:a6:74:66:15:a0:ec:7c:a5:61:36:
        c5:2e:d0:83:60:be:4d:a9:5f:7d:47:14:5c:d0:27:b0:bd:9a:
        33:02:87:c3:06:ab:af:34:b2:90:7c:50:56:52:33:f9:3b:9d:
        8b:36:d6:95:9d:37:4e:04:fb:81:65:d8:04:15:b5:1b:3b:4a:
        ea:56:9d:85:59:f1:0e:eb:50:9d:4a:af:14:63:ef:57:03:ba:
        d4:01:e6:68:0a:cc:c9:6e:f8:31:72:ac:08:34:c6:bc:d3:d8:
        00:08:c8:54:10:25:cb:c8:3f:93:dd:8b:7e:84:74:07:2e:c9:
        55:63:85:a5:ba:b1:e8:80:89:ff:18:80:06:f1:2c:db:c1:22:
        dd:7f:dd:06:1e:23:70:44:ac:43:b1:49:eb:6f:22:bd:c3:97:
        a3:a0:af:7d:c9:5b:ee:6d:38:d4:2d:9c:7d:9a:22:86:6d:81:
        47:75:82:68:5c:71:4d:ae:70:49:c1:36:7e:8d:7c:01:8b:29:
        c9:1f:07:3a
-----BEGIN CERTIFICATE-----
MIIDSjCCAjKgAwIBAgIQdykjTfGdKWPIVRy78eGP7jANBgkqhkiG9w0BAQsFADAd
MRswGQYDVQQDDBJyb290Y2FfY29tbW9uX25hbWUwHhcNMjQxMjExMDYzMDUwWhcN
MzQxMjA5MDYzMDUwWjAcMRowGAYDVQQDDBFzdWJjYV9jb21tb25fbmFtZTCCASIw
DQYJKoZIhvcNAQEBBQADggEPADCCAQoCggEBAKYhFbXM3ASmbX1AKseMn0ccq7we
lZzcnhAIzN6z84Bd+zp4btawnKl2ZR+7SfPytCxNtOoh2iRfneigp47t3dHpCnFx
m9Ev2cWsWZMJk0A2DECo6dK4G4C6kpFHQOiuto9cTdcHOHMeImCdpMBp3Q6os+6w
nV9eN3+omm1W8fueiNmevnjYpU3wdRi7ZkkQ9JRXHN7gN2OnPn3dTeKtDiIbHue3
2YNBPsxVwVCYMjlsTMwt4h23hTwt3VZWiDbS9RVmH4UBPiMk6q9glsYMLdGg/PWB
9w4mL/qPjoXvumBEB6Krm6Rm28Uj8V7Ef+BujqEnhKy4h5/QUZec28xHs90CAwEA
AaOBhjCBgzAdBgNVHQ4EFgQUDZhDqnA/2wM5uEu39FroVzydlrQwEgYDVR0TAQH/
BAgwBgEB/wIBADAdBgNVHSUEFjAUBggrBgEFBQcDAgYIKwYBBQUHAwEwDgYDVR0P
AQH/BAQDAgEGMB8GA1UdIwQYMBaAFCkL/WmHa6cgdoC+OGp+7D+9pduEMA0GCSqG
SIb3DQEBCwUAA4IBAQAMzTTOis0l9qEYCQAxfDDaTPAQ67mw43U5hJrAmvOR1WLd
s0OU0WkRiuVSVmn0zXAq2aLvrAnUEdFxwQ4MRaZ0ZhWg7HylYTbFLtCDYL5NqV99
RxRc0CewvZozAofDBquvNLKQfFBWUjP5O52LNtaVnTdOBPuBZdgEFbUbO0rqVp2F
WfEO61CdSq8UY+9XA7rUAeZoCszJbvgxcqwINMa809gACMhUECXLyD+T3Yt+hHQH
LslVY4WlurHogIn/GIAG8SzbwSLdf90GHiNwRKxDsUnrbyK9w5ejoK99yVvubTjU
LZx9miKGbYFHdYJoXHFNrnBJwTZ+jXwBiynJHwc6
-----END CERTIFICATE-----
