Certificate:
    Data:
        Version: 3 (0x2)
        Serial Number:
            80:eb:ff:59:67:c9:ec:ba:62:70:cd:74:2d:83:a0:5f
        Signature Algorithm: sha256WithRSAEncryption
        Issuer: CN=subca_common_name
        Validity
            Not Before: Dec 11 06:32:18 2024 GMT
            Not After : Dec 11 06:32:18 2025 GMT
        Subject: C=AU, ST=Some-State, O=Internet Widgits Pty Ltd, CN=test
        Subject Public Key Info:
            Public Key Algorithm: rsaEncryption
                Public-Key: (2048 bit)
                Modulus:
                    00:c9:08:d1:7d:ee:b0:95:8d:4f:4f:e2:ff:e6:a7:
                    35:7b:70:22:bf:89:ba:6b:6e:6d:23:45:07:aa:12:
                    4e:bf:64:20:5e:36:e9:02:7d:99:4d:90:17:3d:e3:
                    e1:49:c6:f4:1e:d1:2d:13:23:8f:7a:e4:4b:d2:c9:
                    7d:b6:84:15:2c:2b:11:69:a4:ec:bc:5d:11:fb:f4:
                    3d:de:30:d9:91:be:38:e3:bc:5b:0d:5b:71:7a:c9:
                    cb:0b:dc:00:b0:d7:96:be:0b:4c:2a:d0:70:45:e9:
                    da:79:88:cb:75:45:5e:9f:2b:90:d5:ae:6e:57:a8:
                    e2:a2:1d:e7:21:a3:70:33:d4:12:80:b0:25:ee:2f:
                    f2:32:d5:31:93:fb:d5:21:a5:a9:25:e4:21:6c:70:
                    56:b6:9f:3d:18:11:f0:fe:d3:b0:ee:03:6d:0b:fa:
                    d4:c9:b9:73:82:0a:07:57:e7:6e:46:bb:62:2e:ae:
                    a0:1e:e3:a5:a3:f1:5b:7d:cf:82:9a:3c:0f:9d:50:
                    6f:74:b3:ad:a5:78:39:6d:cb:06:2f:0b:91:f5:eb:
                    a7:ab:49:1e:75:c7:38:b9:71:55:23:81:34:3e:f4:
                    20:e4:52:48:c0:18:49:0e:f0:05:4c:c4:3a:d0:a3:
                    1a:92:67:4c:c7:cd:77:9f:84:93:08:a1:d8:dc:82:
                    f9:77
                Exponent: 65537 (0x10001)
        X509v3 extensions:
            X509v3 Subject Key Identifier: 
                36:B9:21:00:6D:F5:81:EB:DB:CD:F8:28:6A:96:DF:06:10:B0:D3:ED
            X509v3 Basic Constraints: critical
                CA:FALSE
            X509v3 Extended Key Usage: 
                TLS Web Client Authentication
            X509v3 Key Usage: critical
                Digital Signature
            X509v3 Authority Key Identifier: 
                0D:98:43:AA:70:3F:DB:03:39:B8:4B:B7:F4:5A:E8:57:3C:9D:96:B4
    Signature Algorithm: sha256WithRSAEncryption
    Signature Value:
        43:68:73:46:b2:3c:86:8b:b8:70:aa:1d:90:09:21:a7:01:24:
        6b:ad:66:98:e4:8c:08:a2:6b:de:0f:95:35:48:bd:2e:b0:31:
        ca:a9:62:6a:22:6f:66:05:3c:d3:3c:64:2d:f5:5c:d3:c2:2f:
        94:0e:2f:18:fd:4e:2d:50:9e:fb:1f:a1:33:4e:37:9c:3e:be:
        aa:4c:6d:42:1e:14:6e:8f:f4:d7:fa:81:1e:c8:b4:99:6a:97:
        00:26:3f:5a:9c:d0:ff:15:69:c6:ad:b9:7e:3b:a3:6c:06:40:
        81:f3:25:c9:96:59:37:32:cc:02:ea:2a:43:23:8b:d3:c4:d4:
        33:2c:35:46:7f:5d:b5:7c:ca:06:eb:4f:f4:63:f7:20:dd:12:
        e7:32:36:47:0c:7f:35:0a:3f:32:2c:c0:cc:aa:57:ac:e3:f3:
        78:57:7e:f7:eb:ea:56:f5:7a:1c:80:d0:b5:01:9a:02:7d:e1:
        b7:55:64:74:f8:74:fd:8a:4a:71:f7:1a:0c:b7:74:32:8b:ba:
        49:fd:3e:d3:91:21:04:a0:52:78:df:0e:3b:9f:06:3f:40:91:
        fe:a1:2e:a9:1a:8c:47:f9:d3:da:66:54:81:e2:f3:88:9b:b6:
        28:a0:4a:eb:36:36:93:8a:09:c4:1e:81:5f:d0:a1:a1:90:e0:
        34:79:f2:06
-----BEGIN CERTIFICATE-----
MIIDcDCCAligAwIBAgIRAIDr/1lnyey6YnDNdC2DoF8wDQYJKoZIhvcNAQELBQAw
HDEaMBgGA1UEAwwRc3ViY2FfY29tbW9uX25hbWUwHhcNMjQxMjExMDYzMjE4WhcN
MjUxMjExMDYzMjE4WjBUMQswCQYDVQQGEwJBVTETMBEGA1UECAwKU29tZS1TdGF0
ZTEhMB8GA1UECgwYSW50ZXJuZXQgV2lkZ2l0cyBQdHkgTHRkMQ0wCwYDVQQDDAR0
ZXN0MIIBIjANBgkqhkiG9w0BAQEFAAOCAQ8AMIIBCgKCAQEAyQjRfe6wlY1PT+L/
5qc1e3Aiv4m6a25tI0UHqhJOv2QgXjbpAn2ZTZAXPePhScb0HtEtEyOPeuRL0sl9
toQVLCsRaaTsvF0R+/Q93jDZkb4447xbDVtxesnLC9wAsNeWvgtMKtBwRenaeYjL
dUVenyuQ1a5uV6jioh3nIaNwM9QSgLAl7i/yMtUxk/vVIaWpJeQhbHBWtp89GBHw
/tOw7gNtC/rUyblzggoHV+duRrtiLq6gHuOlo/Fbfc+CmjwPnVBvdLOtpXg5bcsG
LwuR9eunq0kedcc4uXFVI4E0PvQg5FJIwBhJDvAFTMQ60KMakmdMx813n4STCKHY
3IL5dwIDAQABo3UwczAdBgNVHQ4EFgQUNrkhAG31gevbzfgoapbfBhCw0+0wDAYD
VR0TAQH/BAIwADATBgNVHSUEDDAKBggrBgEFBQcDAjAOBgNVHQ8BAf8EBAMCB4Aw
HwYDVR0jBBgwFoAUDZhDqnA/2wM5uEu39FroVzydlrQwDQYJKoZIhvcNAQELBQAD
ggEBAENoc0ayPIaLuHCqHZAJIacBJGutZpjkjAiia94PlTVIvS6wMcqpYmoib2YF
PNM8ZC31XNPCL5QOLxj9Ti1QnvsfoTNON5w+vqpMbUIeFG6P9Nf6gR7ItJlqlwAm
P1qc0P8VacatuX47o2wGQIHzJcmWWTcyzALqKkMji9PE1DMsNUZ/XbV8ygbrT/Rj
9yDdEucyNkcMfzUKPzIswMyqV6zj83hXfvfr6lb1ehyA0LUBmgJ94bdVZHT4dP2K
SnH3Ggy3dDKLukn9PtORIQSgUnjfDjufBj9Akf6hLqkajEf509pmVIHi84ibtiig
Sus2NpOKCcQegV/QoaGQ4DR58gY=
-----END CERTIFICATE-----
